; Function Attrs: mustprogress uwtable
define hidden noundef ptr @_ZN3nla11nex_creator13mk_div_by_mulERKNS_3nexERKNS_7nex_mulE(ptr noundef nonnull align 8 dereferenceable(176) %this, ptr noundef nonnull align 8 dereferenceable(8) %a, ptr noundef nonnull align 8 dereferenceable(48) %b) local_unnamed_addr #3 align 2 personality ptr @__gxx_personality_v0 {
entry:
  %ref.tmp = alloca %class.rational, align 8
  %vtable.i = load ptr, ptr %a, align 8
  %vfn.i = getelementptr inbounds i8, ptr %vtable.i, i64 8
  %0 = load ptr, ptr %vfn.i, align 8
  %call.i = tail call noundef i32 %0(ptr noundef nonnull align 8 dereferenceable(8) %a)
  %cmp.i = icmp eq i32 %call.i, 2
  br i1 %cmp.i, label %if.then, label %if.end

if.then:                                          ; preds = %entry
  %call3 = tail call noundef ptr @_ZN3nla11nex_creator17mk_div_sum_by_mulERKNS_7nex_sumERKNS_7nex_mulE(ptr noundef nonnull align 8 dereferenceable(176) %this, ptr noundef nonnull align 8 dereferenceable(16) %a, ptr noundef nonnull align 8 dereferenceable(48) %b)
  br label %return

if.end:                                           ; preds = %entry
  %vtable.i5 = load ptr, ptr %a, align 8
  %vfn.i6 = getelementptr inbounds i8, ptr %vtable.i5, i64 8
  %1 = load ptr, ptr %vfn.i6, align 8
  %call.i7 = tail call noundef i32 %1(ptr noundef nonnull align 8 dereferenceable(8) %a)
  %cmp.i8 = icmp eq i32 %call.i7, 1
  br i1 %cmp.i8, label %if.then5, label %if.end7

if.then5:                                         ; preds = %if.end
  %m_kind.i.i.i = getelementptr inbounds i8, ptr %ref.tmp, i64 4
  %m_ptr.i.i.i = getelementptr inbounds i8, ptr %ref.tmp, i64 8
  store ptr null, ptr %m_ptr.i.i.i, align 8
  %m_den.i.i = getelementptr inbounds i8, ptr %ref.tmp, i64 16
  store i32 1, ptr %m_den.i.i, align 8
  %m_kind.i1.i.i = getelementptr inbounds i8, ptr %ref.tmp, i64 20
  store i8 0, ptr %m_kind.i1.i.i, align 4
  %m_ptr.i4.i.i = getelementptr inbounds i8, ptr %ref.tmp, i64 24
  store ptr null, ptr %m_ptr.i4.i.i, align 8
  %2 = load ptr, ptr @_ZN8rational13g_mpq_managerE, align 8
  store i32 1, ptr %ref.tmp, align 8
  store i8 0, ptr %m_kind.i.i.i, align 4
  call void @_ZN11mpz_managerILb1EE3delEPS0_R3mpz(ptr noundef nonnull %2, ptr noundef nonnull align 8 dereferenceable(16) %m_den.i.i)
  store i32 1, ptr %m_den.i.i, align 8
  %call6 = invoke noundef ptr @_ZN3nla11nex_creator9mk_scalarERK8rational(ptr noundef nonnull align 8 dereferenceable(176) %this, ptr noundef nonnull align 8 dereferenceable(32) %ref.tmp)
          to label %invoke.cont unwind label %lpad

invoke.cont:                                      ; preds = %if.then5
  %3 = load ptr, ptr @_ZN8rational13g_mpq_managerE, align 8
  invoke void @_ZN11mpz_managerILb1EE3delEPS0_R3mpz(ptr noundef %3, ptr noundef nonnull align 8 dereferenceable(16) %ref.tmp)
          to label %.noexc.i unwind label %terminate.lpad.i

.noexc.i:                                         ; preds = %invoke.cont
  invoke void @_ZN11mpz_managerILb1EE3delEPS0_R3mpz(ptr noundef %3, ptr noundef nonnull align 8 dereferenceable(16) %m_den.i.i)
          to label %return unwind label %terminate.lpad.i

terminate.lpad.i:                                 ; preds = %.noexc.i, %invoke.cont
  %4 = landingpad { ptr, i32 }
          catch ptr null
  %5 = extractvalue { ptr, i32 } %4, 0
  call void @__clang_call_terminate(ptr %5) #20
  unreachable

lpad:                                             ; preds = %if.then5
  %6 = landingpad { ptr, i32 }
          cleanup
  call void @_ZN8rationalD2Ev(ptr noundef nonnull align 8 dereferenceable(32) %ref.tmp) #21
  resume { ptr, i32 } %6

if.end7:                                          ; preds = %if.end
  %call9 = tail call noundef ptr @_ZN3nla11nex_creator17mk_div_mul_by_mulERKNS_7nex_mulES3_(ptr noundef nonnull align 8 dereferenceable(176) %this, ptr noundef nonnull align 8 dereferenceable(48) %a, ptr noundef nonnull align 8 dereferenceable(48) %b)
  br label %return

return:                                           ; preds = %.noexc.i, %if.end7, %if.then
  %retval.0 = phi ptr [ %call3, %if.then ], [ %call9, %if.end7 ], [ %call6, %.noexc.i ]
  ret ptr %retval.0
}